; Function Attrs: nounwind uwtable
define ptr @l_Vector_ofFnM_go___rarg___lambda__1(ptr noundef %0, ptr noundef %1, ptr noundef %2, ptr noundef %3, ptr noundef %4, ptr noundef %5) local_unnamed_addr #0 {
  %7 = ptrtoint ptr %0 to i64
  %8 = and i64 %7, 1
  %.not = icmp eq i64 %8, 0
  br i1 %.not, label %.critedge.i, label %9, !prof !4

9:                                                ; preds = %6
  %10 = lshr i64 %7, 1
  %11 = add nuw i64 %10, 1
  %12 = icmp sgt i64 %11, -1
  br i1 %12, label %13, label %17, !prof !5

13:                                               ; preds = %9
  %14 = shl nuw i64 %11, 1
  %15 = or disjoint i64 %14, 1
  %16 = inttoptr i64 %15 to ptr
  br label %lean_nat_add.exit

17:                                               ; preds = %9
  %18 = tail call ptr @lean_big_usize_to_nat(i64 noundef range(i64 0, -1) %11) #4
  br label %lean_nat_add.exit

.critedge.i:                                      ; preds = %6
  %19 = tail call ptr @lean_nat_big_add(ptr noundef %0, ptr noundef nonnull inttoptr (i64 3 to ptr)) #4
  br label %lean_nat_add.exit

lean_nat_add.exit:                                ; preds = %17, %13, %.critedge.i
  %.0.i = phi ptr [ %19, %.critedge.i ], [ %16, %13 ], [ %18, %17 ]
  %20 = tail call ptr @lean_array_push(ptr noundef %1, ptr noundef %5) #4
  %21 = tail call ptr @l_Vector_ofFnM_go___rarg(ptr noundef %2, ptr noundef %3, ptr noundef %4, ptr noundef %.0.i, ptr nonnull poison, ptr noundef %20, ptr nonnull poison)
  ret ptr %21
}